; Function Attrs: nounwind uwtable
define internal fastcc i32 @save_preview(ptr noundef %0, ptr noundef readonly captures(none) %1) unnamed_addr #2 {
  %3 = alloca i32, align 4
  %4 = alloca [2 x i32], align 4
  call void @llvm.lifetime.start.p0(i64 8, ptr nonnull %4) #6
  %5 = getelementptr inbounds nuw i8, ptr %1, i64 24
  %6 = load ptr, ptr %5, align 8, !tbaa !35
  %7 = load i32, ptr %6, align 8, !tbaa !80
  store i32 %7, ptr %4, align 4, !tbaa !43
  %8 = getelementptr inbounds nuw i8, ptr %6, i64 4
  %9 = load i32, ptr %8, align 4, !tbaa !82
  %10 = getelementptr inbounds nuw i8, ptr %4, i64 4
  store i32 %9, ptr %10, align 4, !tbaa !43
  %11 = shl i32 %7, 2
  %12 = mul i32 %9, %11
  %13 = zext i32 %12 to i64
  call void @llvm.lifetime.start.p0(i64 4, ptr nonnull %3) #6
  %14 = icmp ugt i32 %12, 2147483639
  br i1 %14, label %15, label %19

15:                                               ; preds = %2
  %16 = getelementptr inbounds nuw i8, ptr %0, i64 56
  %17 = load ptr, ptr %16, align 8, !tbaa !54
  %18 = tail call i32 %17(ptr noundef %0, i32 noundef 3) #6
  br label %save_attr_sz.exit

19:                                               ; preds = %2
  %20 = add nuw nsw i32 %12, 8
  store i32 %20, ptr %3, align 4, !tbaa !43
  %21 = getelementptr inbounds nuw i8, ptr %0, i64 48
  %22 = load ptr, ptr %21, align 8, !tbaa !46
  %23 = getelementptr inbounds nuw i8, ptr %0, i64 176
  %24 = call i32 %22(ptr noundef %0, ptr noundef nonnull %3, i64 noundef 4, ptr noundef nonnull %23) #6
  br label %save_attr_sz.exit

save_attr_sz.exit:                                ; preds = %15, %19
  %.0.i = phi i32 [ %18, %15 ], [ %24, %19 ]
  call void @llvm.lifetime.end.p0(i64 4, ptr nonnull %3) #6
  %25 = icmp eq i32 %.0.i, 0
  br i1 %25, label %26, label %.thread

26:                                               ; preds = %save_attr_sz.exit
  %27 = getelementptr inbounds nuw i8, ptr %0, i64 48
  %28 = load ptr, ptr %27, align 8, !tbaa !46
  %29 = getelementptr inbounds nuw i8, ptr %0, i64 176
  %30 = call i32 %28(ptr noundef nonnull %0, ptr noundef nonnull %4, i64 noundef 8, ptr noundef nonnull %29) #6
  %31 = icmp eq i32 %30, 0
  br i1 %31, label %32, label %.thread

32:                                               ; preds = %26
  %33 = load ptr, ptr %27, align 8, !tbaa !46
  %34 = load ptr, ptr %5, align 8, !tbaa !35
  %35 = getelementptr inbounds nuw i8, ptr %34, i64 16
  %36 = load ptr, ptr %35, align 8, !tbaa !83
  %37 = call i32 %33(ptr noundef nonnull %0, ptr noundef %36, i64 noundef %13, ptr noundef nonnull %29) #6
  br label %.thread

.thread:                                          ; preds = %save_attr_sz.exit, %32, %26
  %.1 = phi i32 [ %37, %32 ], [ %30, %26 ], [ %.0.i, %save_attr_sz.exit ]
  call void @llvm.lifetime.end.p0(i64 8, ptr nonnull %4) #6
  ret i32 %.1
}